#include <math.h>
#include <stdio.h>
#include <stdlib.h>
#include <string.h>

int main()
{
	char s[101];
	int i,l,j;
	while(gets(s)!=0)
	{    puts(s);
printf("\n");
		l=strlen(s);
		for(i=0;i<l;i++)
		{
			if(s[i]==')')
			{
				for(j=i-1;j>=0;j--)
				{
					if(s[j]=='(')
						break;
				}
				if(j>=0)
				{
					s[i]=' ';
					s[j]=' ';
				}
			}
		}
		for(i=0;i<l;i++)
		{
			if(s[i]=='(')
				s[i]='$';
			else if(s[i]==')')
				s[i]='?';
			else s[i]=' ';
		}
		puts(s);
		printf("\n");
	}
	
	return 0;
}
