; ModuleID = '17/62.c'
source_filename = "17/62.c"
target datalayout = "e-m:e-p270:32:32-p271:32:32-p272:64:64-i64:64-f80:128-n8:16:32:64-S128"
target triple = "x86_64-pc-linux-gnu"

@.str = private unnamed_addr constant [2 x i8] c"\0A\00", align 1

; Function Attrs: noinline nounwind uwtable
define dso_local i32 @main() #0 {
  %1 = alloca i32, align 4
  %2 = alloca [101 x i8], align 16
  %3 = alloca i32, align 4
  %4 = alloca i32, align 4
  %5 = alloca i32, align 4
  store i32 0, i32* %1, align 4
  br label %6

6:                                                ; preds = %97, %0
  %7 = getelementptr inbounds [101 x i8], [101 x i8]* %2, i64 0, i64 0
  %8 = call i32 (i8*, ...) bitcast (i32 (...)* @gets to i32 (i8*, ...)*)(i8* %7)
  %9 = icmp ne i32 %8, 0
  br i1 %9, label %10, label %101

10:                                               ; preds = %6
  %11 = getelementptr inbounds [101 x i8], [101 x i8]* %2, i64 0, i64 0
  %12 = call i32 @puts(i8* %11)
  %13 = call i32 (i8*, ...) @printf(i8* getelementptr inbounds ([2 x i8], [2 x i8]* @.str, i64 0, i64 0))
  %14 = getelementptr inbounds [101 x i8], [101 x i8]* %2, i64 0, i64 0
  %15 = call i64 @strlen(i8* %14) #3
  %16 = trunc i64 %15 to i32
  store i32 %16, i32* %4, align 4
  store i32 0, i32* %3, align 4
  br label %17

17:                                               ; preds = %58, %10
  %18 = load i32, i32* %3, align 4
  %19 = load i32, i32* %4, align 4
  %20 = icmp slt i32 %18, %19
  br i1 %20, label %21, label %61

21:                                               ; preds = %17
  %22 = load i32, i32* %3, align 4
  %23 = sext i32 %22 to i64
  %24 = getelementptr inbounds [101 x i8], [101 x i8]* %2, i64 0, i64 %23
  %25 = load i8, i8* %24, align 1
  %26 = sext i8 %25 to i32
  %27 = icmp eq i32 %26, 41
  br i1 %27, label %28, label %57

28:                                               ; preds = %21
  %29 = load i32, i32* %3, align 4
  %30 = sub nsw i32 %29, 1
  store i32 %30, i32* %5, align 4
  br label %31

31:                                               ; preds = %43, %28
  %32 = load i32, i32* %5, align 4
  %33 = icmp sge i32 %32, 0
  br i1 %33, label %34, label %46

34:                                               ; preds = %31
  %35 = load i32, i32* %5, align 4
  %36 = sext i32 %35 to i64
  %37 = getelementptr inbounds [101 x i8], [101 x i8]* %2, i64 0, i64 %36
  %38 = load i8, i8* %37, align 1
  %39 = sext i8 %38 to i32
  %40 = icmp eq i32 %39, 40
  br i1 %40, label %41, label %42

41:                                               ; preds = %34
  br label %46

42:                                               ; preds = %34
  br label %43

43:                                               ; preds = %42
  %44 = load i32, i32* %5, align 4
  %45 = add nsw i32 %44, -1
  store i32 %45, i32* %5, align 4
  br label %31

46:                                               ; preds = %41, %31
  %47 = load i32, i32* %5, align 4
  %48 = icmp sge i32 %47, 0
  br i1 %48, label %49, label %56

49:                                               ; preds = %46
  %50 = load i32, i32* %3, align 4
  %51 = sext i32 %50 to i64
  %52 = getelementptr inbounds [101 x i8], [101 x i8]* %2, i64 0, i64 %51
  store i8 32, i8* %52, align 1
  %53 = load i32, i32* %5, align 4
  %54 = sext i32 %53 to i64
  %55 = getelementptr inbounds [101 x i8], [101 x i8]* %2, i64 0, i64 %54
  store i8 32, i8* %55, align 1
  br label %56

56:                                               ; preds = %49, %46
  br label %57

57:                                               ; preds = %56, %21
  br label %58

58:                                               ; preds = %57
  %59 = load i32, i32* %3, align 4
  %60 = add nsw i32 %59, 1
  store i32 %60, i32* %3, align 4
  br label %17

61:                                               ; preds = %17
  store i32 0, i32* %3, align 4
  br label %62

62:                                               ; preds = %94, %61
  %63 = load i32, i32* %3, align 4
  %64 = load i32, i32* %4, align 4
  %65 = icmp slt i32 %63, %64
  br i1 %65, label %66, label %97

66:                                               ; preds = %62
  %67 = load i32, i32* %3, align 4
  %68 = sext i32 %67 to i64
  %69 = getelementptr inbounds [101 x i8], [101 x i8]* %2, i64 0, i64 %68
  %70 = load i8, i8* %69, align 1
  %71 = sext i8 %70 to i32
  %72 = icmp eq i32 %71, 40
  br i1 %72, label %73, label %77

73:                                               ; preds = %66
  %74 = load i32, i32* %3, align 4
  %75 = sext i32 %74 to i64
  %76 = getelementptr inbounds [101 x i8], [101 x i8]* %2, i64 0, i64 %75
  store i8 36, i8* %76, align 1
  br label %93

77:                                               ; preds = %66
  %78 = load i32, i32* %3, align 4
  %79 = sext i32 %78 to i64
  %80 = getelementptr inbounds [101 x i8], [101 x i8]* %2, i64 0, i64 %79
  %81 = load i8, i8* %80, align 1
  %82 = sext i8 %81 to i32
  %83 = icmp eq i32 %82, 41
  br i1 %83, label %84, label %88

84:                                               ; preds = %77
  %85 = load i32, i32* %3, align 4
  %86 = sext i32 %85 to i64
  %87 = getelementptr inbounds [101 x i8], [101 x i8]* %2, i64 0, i64 %86
  store i8 63, i8* %87, align 1
  br label %92

88:                                               ; preds = %77
  %89 = load i32, i32* %3, align 4
  %90 = sext i32 %89 to i64
  %91 = getelementptr inbounds [101 x i8], [101 x i8]* %2, i64 0, i64 %90
  store i8 32, i8* %91, align 1
  br label %92

92:                                               ; preds = %88, %84
  br label %93

93:                                               ; preds = %92, %73
  br label %94

94:                                               ; preds = %93
  %95 = load i32, i32* %3, align 4
  %96 = add nsw i32 %95, 1
  store i32 %96, i32* %3, align 4
  br label %62

97:                                               ; preds = %62
  %98 = getelementptr inbounds [101 x i8], [101 x i8]* %2, i64 0, i64 0
  %99 = call i32 @puts(i8* %98)
  %100 = call i32 (i8*, ...) @printf(i8* getelementptr inbounds ([2 x i8], [2 x i8]* @.str, i64 0, i64 0))
  br label %6

101:                                              ; preds = %6
  ret i32 0
}

declare dso_local i32 @gets(...) #1

declare dso_local i32 @puts(i8*) #1

declare dso_local i32 @printf(i8*, ...) #1

; Function Attrs: nounwind readonly
declare dso_local i64 @strlen(i8*) #2


!llvm.module.flags = !{!0}
!llvm.ident = !{!1}

!0 = !{i32 1, !"wchar_size", i32 4}
!1 = !{!"clang version 10.0.0-4ubuntu1 "}
